target datalayout = "e-m:e-p270:32:32-p271:32:32-p272:64:64-i64:64-i128:128-f80:128-n8:16:32:64-S128"
target triple = "x86_64-pc-linux-gnu"

%struct.Model = type { [257 x i16], [257 x i16], [257 x i8], i32, i32, i32 }
%struct.PixContext = type { i32, i32, [12 x i8], %struct.Model, %struct.Model, [15 x [4 x %struct.Model]], i32 }

@sec_order_sizes = internal constant [4 x i32] [i32 1, i32 7, i32 6, i32 1], align 16

; Function Attrs: cold nounwind optsize uwtable
define internal void @model_init(ptr noundef %0, i32 noundef %1, i32 noundef %2) #2 {
  %4 = alloca ptr, align 8
  %5 = alloca i32, align 4
  %6 = alloca i32, align 4
  store ptr %0, ptr %4, align 8, !tbaa !4
  store i32 %1, ptr %5, align 4, !tbaa !9
  store i32 %2, ptr %6, align 4, !tbaa !9
  %7 = load i32, ptr %5, align 4, !tbaa !9
  %8 = load ptr, ptr %4, align 8, !tbaa !4
  %9 = getelementptr inbounds nuw %struct.Model, ptr %8, i32 0, i32 3
  store i32 %7, ptr %9, align 4, !tbaa !20
  %10 = load i32, ptr %6, align 4, !tbaa !9
  %11 = load ptr, ptr %4, align 8, !tbaa !4
  %12 = getelementptr inbounds nuw %struct.Model, ptr %11, i32 0, i32 4
  store i32 %10, ptr %12, align 4, !tbaa !17
  %13 = load i32, ptr %5, align 4, !tbaa !9
  %14 = load i32, ptr %6, align 4, !tbaa !9
  %15 = mul nsw i32 %13, %14
  %16 = load ptr, ptr %4, align 8, !tbaa !4
  %17 = getelementptr inbounds nuw %struct.Model, ptr %16, i32 0, i32 5
  store i32 %15, ptr %17, align 4, !tbaa !19
  ret void
}

; Function Attrs: cold nounwind optsize uwtable
define internal void @pixctx_init(ptr noundef %0, i32 noundef %1, i32 noundef %2, i32 noundef %3) #2 {
  %5 = alloca ptr, align 8
  %6 = alloca i32, align 4
  %7 = alloca i32, align 4
  %8 = alloca i32, align 4
  %9 = alloca i32, align 4
  %10 = alloca i32, align 4
  %11 = alloca i32, align 4
  %12 = alloca i32, align 4
  store ptr %0, ptr %5, align 8, !tbaa !27
  store i32 %1, ptr %6, align 4, !tbaa !9
  store i32 %2, ptr %7, align 4, !tbaa !9
  store i32 %3, ptr %8, align 4, !tbaa !9
  call void @llvm.lifetime.start.p0(i64 4, ptr %9) #8
  call void @llvm.lifetime.start.p0(i64 4, ptr %10) #8
  call void @llvm.lifetime.start.p0(i64 4, ptr %11) #8
  call void @llvm.lifetime.start.p0(i64 4, ptr %12) #8
  %13 = load i32, ptr %6, align 4, !tbaa !9
  %14 = add nsw i32 %13, 4
  %15 = load ptr, ptr %5, align 8, !tbaa !27
  %16 = getelementptr inbounds nuw %struct.PixContext, ptr %15, i32 0, i32 0
  store i32 %14, ptr %16, align 4, !tbaa !31
  %17 = load i32, ptr %6, align 4, !tbaa !9
  %18 = load ptr, ptr %5, align 8, !tbaa !27
  %19 = getelementptr inbounds nuw %struct.PixContext, ptr %18, i32 0, i32 1
  store i32 %17, ptr %19, align 4, !tbaa !90
  %20 = load i32, ptr %8, align 4, !tbaa !9
  %21 = load ptr, ptr %5, align 8, !tbaa !27
  %22 = getelementptr inbounds nuw %struct.PixContext, ptr %21, i32 0, i32 6
  store i32 %20, ptr %22, align 4, !tbaa !29
  %23 = load ptr, ptr %5, align 8, !tbaa !27
  %24 = getelementptr inbounds nuw %struct.PixContext, ptr %23, i32 0, i32 3
  %25 = load ptr, ptr %5, align 8, !tbaa !27
  %26 = getelementptr inbounds nuw %struct.PixContext, ptr %25, i32 0, i32 1
  %27 = load i32, ptr %26, align 4, !tbaa !90
  %28 = add nsw i32 %27, 1
  call void @model_init(ptr noundef %24, i32 noundef %28, i32 noundef 15) #10
  %29 = load ptr, ptr %5, align 8, !tbaa !27
  %30 = getelementptr inbounds nuw %struct.PixContext, ptr %29, i32 0, i32 4
  %31 = load i32, ptr %7, align 4, !tbaa !9
  call void @model_init(ptr noundef %30, i32 noundef %31, i32 noundef 50) #10
  store i32 0, ptr %9, align 4, !tbaa !9
  store i32 0, ptr %12, align 4, !tbaa !9
  br label %32

32:                                               ; preds = %71, %4
  %33 = load i32, ptr %9, align 4, !tbaa !9
  %34 = icmp slt i32 %33, 4
  br i1 %34, label %35, label %74

35:                                               ; preds = %32
  store i32 0, ptr %10, align 4, !tbaa !9
  br label %36

36:                                               ; preds = %65, %35
  %37 = load i32, ptr %10, align 4, !tbaa !9
  %38 = load i32, ptr %9, align 4, !tbaa !9
  %39 = sext i32 %38 to i64
  %40 = getelementptr inbounds [4 x i32], ptr @sec_order_sizes, i64 0, i64 %39
  %41 = load i32, ptr %40, align 4, !tbaa !9
  %42 = icmp slt i32 %37, %41
  br i1 %42, label %43, label %70

43:                                               ; preds = %36
  store i32 0, ptr %11, align 4, !tbaa !9
  br label %44

44:                                               ; preds = %61, %43
  %45 = load i32, ptr %11, align 4, !tbaa !9
  %46 = icmp slt i32 %45, 4
  br i1 %46, label %47, label %64

47:                                               ; preds = %44
  %48 = load ptr, ptr %5, align 8, !tbaa !27
  %49 = getelementptr inbounds nuw %struct.PixContext, ptr %48, i32 0, i32 5
  %50 = load i32, ptr %12, align 4, !tbaa !9
  %51 = sext i32 %50 to i64
  %52 = getelementptr inbounds [15 x [4 x %struct.Model]], ptr %49, i64 0, i64 %51
  %53 = load i32, ptr %11, align 4, !tbaa !9
  %54 = sext i32 %53 to i64
  %55 = getelementptr inbounds [4 x %struct.Model], ptr %52, i64 0, i64 %54
  %56 = load i32, ptr %9, align 4, !tbaa !9
  %57 = add nsw i32 2, %56
  %58 = load i32, ptr %9, align 4, !tbaa !9
  %59 = icmp ne i32 %58, 0
  %60 = select i1 %59, i32 15, i32 -1
  call void @model_init(ptr noundef %55, i32 noundef %57, i32 noundef %60) #10
  br label %61

61:                                               ; preds = %47
  %62 = load i32, ptr %11, align 4, !tbaa !9
  %63 = add nsw i32 %62, 1
  store i32 %63, ptr %11, align 4, !tbaa !9
  br label %44, !llvm.loop !108

64:                                               ; preds = %44
  br label %65

65:                                               ; preds = %64
  %66 = load i32, ptr %10, align 4, !tbaa !9
  %67 = add nsw i32 %66, 1
  store i32 %67, ptr %10, align 4, !tbaa !9
  %68 = load i32, ptr %12, align 4, !tbaa !9
  %69 = add nsw i32 %68, 1
  store i32 %69, ptr %12, align 4, !tbaa !9
  br label %36, !llvm.loop !109

70:                                               ; preds = %36
  br label %71

71:                                               ; preds = %70
  %72 = load i32, ptr %9, align 4, !tbaa !9
  %73 = add nsw i32 %72, 1
  store i32 %73, ptr %9, align 4, !tbaa !9
  br label %32, !llvm.loop !110

74:                                               ; preds = %32
  call void @llvm.lifetime.end.p0(i64 4, ptr %12) #8
  call void @llvm.lifetime.end.p0(i64 4, ptr %11) #8
  call void @llvm.lifetime.end.p0(i64 4, ptr %10) #8
  call void @llvm.lifetime.end.p0(i64 4, ptr %9) #8
  ret void
}