; Function Attrs: cold nofree norecurse nosync nounwind optsize memory(argmem: write) uwtable
define internal fastcc void @pixctx_init(ptr noundef writeonly captures(none) initializes((0, 8), (1308, 1320), (2608, 2620), (80620, 80624)) %0, i32 noundef range(i32 2, 9) %1, i32 noundef %2, i32 noundef range(i32 0, 2) %3) unnamed_addr #5 {
  %5 = add nuw nsw i32 %1, 4
  store i32 %5, ptr %0, align 4, !tbaa !22
  %6 = getelementptr inbounds nuw i8, ptr %0, i64 4
  store i32 %1, ptr %6, align 4, !tbaa !39
  %7 = getelementptr inbounds nuw i8, ptr %0, i64 80620
  store i32 %3, ptr %7, align 4, !tbaa !20
  %8 = add nuw nsw i32 %1, 1
  %9 = getelementptr inbounds nuw i8, ptr %0, i64 1308
  store i32 %8, ptr %9, align 4, !tbaa !16
  %10 = getelementptr inbounds nuw i8, ptr %0, i64 1312
  store i32 15, ptr %10, align 4, !tbaa !12
  %11 = mul nuw nsw i32 %8, 15
  %12 = getelementptr inbounds nuw i8, ptr %0, i64 1316
  store i32 %11, ptr %12, align 4, !tbaa !15
  %13 = getelementptr inbounds nuw i8, ptr %0, i64 2608
  store i32 %2, ptr %13, align 4, !tbaa !16
  %14 = getelementptr inbounds nuw i8, ptr %0, i64 2612
  store i32 50, ptr %14, align 4, !tbaa !12
  %15 = mul nsw i32 %2, 50
  %16 = getelementptr inbounds nuw i8, ptr %0, i64 2616
  store i32 %15, ptr %16, align 4, !tbaa !15
  %17 = getelementptr inbounds nuw i8, ptr %0, i64 2620
  br label %.preheader.lr.ph

.preheader.lr.ph:                                 ; preds = %._crit_edge, %4
  %indvars.iv36 = phi i64 [ 0, %4 ], [ %indvars.iv.next37, %._crit_edge ]
  %.030 = phi i64 [ 0, %4 ], [ %indvars.iv.next33, %._crit_edge ]
  %18 = getelementptr inbounds nuw [4 x i32], ptr @sec_order_sizes, i64 0, i64 %indvars.iv36
  %19 = load i32, ptr %18, align 4, !tbaa !73
  %.not = icmp eq i64 %indvars.iv36, 0
  %20 = select i1 %.not, i32 -1, i32 15
  %21 = trunc i64 %indvars.iv36 to i32
  %22 = add i32 %21, 2
  %23 = mul nsw i32 %20, %22
  %sext = shl i64 %.030, 32
  %24 = ashr exact i64 %sext, 32
  %smax = tail call i32 @llvm.smax.i32(i32 %19, i32 1)
  br label %.preheader

.preheader:                                       ; preds = %.preheader.lr.ph, %30
  %indvars.iv32 = phi i64 [ %24, %.preheader.lr.ph ], [ %indvars.iv.next33, %30 ]
  %.02327 = phi i32 [ 0, %.preheader.lr.ph ], [ %31, %30 ]
  br label %25

25:                                               ; preds = %.preheader, %25
  %indvars.iv = phi i64 [ 0, %.preheader ], [ %indvars.iv.next, %25 ]
  %26 = getelementptr inbounds [15 x [4 x %struct.Model]], ptr %17, i64 0, i64 %indvars.iv32, i64 %indvars.iv
  %27 = getelementptr inbounds nuw i8, ptr %26, i64 1288
  store i32 %22, ptr %27, align 4, !tbaa !16
  %28 = getelementptr inbounds nuw i8, ptr %26, i64 1292
  store i32 %20, ptr %28, align 4, !tbaa !12
  %29 = getelementptr inbounds nuw i8, ptr %26, i64 1296
  store i32 %23, ptr %29, align 4, !tbaa !15
  %indvars.iv.next = add nuw nsw i64 %indvars.iv, 1
  %exitcond.not = icmp eq i64 %indvars.iv.next, 4
  br i1 %exitcond.not, label %30, label %25, !llvm.loop !94

30:                                               ; preds = %25
  %31 = add nuw nsw i32 %.02327, 1
  %indvars.iv.next33 = add nsw i64 %indvars.iv32, 1
  %exitcond35.not = icmp eq i32 %31, %smax
  br i1 %exitcond35.not, label %._crit_edge, label %.preheader, !llvm.loop !95

._crit_edge:                                      ; preds = %30
  %indvars.iv.next37 = add nuw nsw i64 %indvars.iv36, 1
  %exitcond39.not = icmp eq i64 %indvars.iv.next37, 4
  br i1 %exitcond39.not, label %32, label %.preheader.lr.ph, !llvm.loop !96

32:                                               ; preds = %._crit_edge
  ret void
}